target datalayout = "e-m:e-p270:32:32-p271:32:32-p272:64:64-i64:64-i128:128-f80:128-n8:16:32:64-S128"
target triple = "x86_64-pc-linux-gnu"

%struct.slurm_conf_t = type { i64, ptr, i16, ptr, ptr, ptr, ptr, ptr, i16, ptr, ptr, ptr, ptr, ptr, ptr, ptr, i16, ptr, ptr, ptr, ptr, i16, ptr, ptr, ptr, i64, ptr, ptr, ptr, ptr, i16, ptr, ptr, i16, i32, ptr, i32, ptr, i32, i32, ptr, ptr, i64, i64, ptr, i16, i16, ptr, i32, i32, ptr, i32, ptr, i32, i16, i16, i16, ptr, i16, i16, ptr, ptr, i32, i16, i16, ptr, i32, i16, ptr, ptr, ptr, ptr, i16, ptr, ptr, ptr, ptr, i32, ptr, ptr, ptr, ptr, i16, i16, ptr, i32, i32, i32, i16, i16, ptr, ptr, i16, ptr, ptr, i32, i32, i32, i32, i32, i64, i32, i32, i16, ptr, ptr, i32, ptr, ptr, ptr, i16, i32, ptr, ptr, i16, ptr, ptr, i32, i16, ptr, ptr, ptr, ptr, i32, i32, i16, i16, i32, ptr, i16, ptr, i32, i32, i32, i32, i32, i32, ptr, i16, ptr, ptr, i32, i16, ptr, i32, i16, i16, ptr, ptr, ptr, i16, ptr, ptr, ptr, ptr, i16, i16, ptr, i16, ptr, i16, ptr, i16, ptr, i16, ptr, ptr, ptr, ptr, i16, ptr, ptr, ptr, i32, ptr, i32, ptr, ptr, i16, ptr, ptr, i32, i16, ptr, ptr, i16, i16, ptr, i16, ptr, ptr, ptr, i32, ptr, i16, i16, ptr, ptr, ptr, ptr, ptr, ptr, ptr, ptr, i16, i32, i16, ptr, ptr, ptr, ptr, i32, ptr, ptr, ptr, i16, ptr, ptr, ptr, i16, ptr, i16, ptr, i16, i16, ptr }
%struct.persist_msg_t = type { ptr, ptr, i16 }
%struct.job_record = type { i32, ptr, ptr, ptr, ptr, i16, i32, i32, i32, ptr, i32, ptr, ptr, i16, ptr, double, i64, ptr, ptr, ptr, ptr, ptr, ptr, i32, ptr, i32, i64, i64, i32, i32, ptr, i16, i64, i64, i8, i32, ptr, ptr, ptr, ptr, ptr, ptr, ptr, ptr, i32, ptr, ptr, i32, ptr, i32, ptr, i32, ptr, i32, ptr, ptr, ptr, ptr, ptr, ptr, i32, i16, i64, ptr, ptr, ptr, ptr, %struct.acct_policy_limit_set_t, i16, ptr, ptr, ptr, ptr, ptr, i32, ptr, ptr, ptr, ptr, ptr, i32, i32, ptr, ptr, ptr, i16, ptr, ptr, i8, ptr, ptr, i64, i64, i8, i32, i32, i8, i32, ptr, i32, i64, i32, ptr, ptr, ptr, i8, i16, i64, i32, ptr, ptr, ptr, ptr, ptr, i16, i32, ptr, ptr, ptr, ptr, i32, ptr, i32, i16, i64, ptr, i32, i32, ptr, i64, ptr, ptr, i64, i32, i32, i64, i32, i32, ptr, ptr, ptr, ptr, ptr, ptr, ptr, ptr, ptr, ptr, ptr, ptr, i32, ptr, i16, i16, i16, i16, ptr, i32, i32, i8, i64 }
%struct.acct_policy_limit_set_t = type { i16, i16, ptr }
%struct.job_details_t = type { i32, ptr, i64, ptr, i32, ptr, i64, ptr, i16, i16, ptr, i16, i32, i32, i32, i16, ptr, i16, ptr, ptr, ptr, i16, ptr, ptr, ptr, ptr, i32, ptr, ptr, ptr, ptr, ptr, i32, i32, i32, ptr, ptr, i16, i32, i32, i32, i32, i32, i32, i16, i16, i32, i8, i8, i32, i32, i64, i64, i16, i32, ptr, ptr, i8, ptr, i32, ptr, i64, ptr, ptr, i16, i16, i16, i8, ptr, ptr, ptr, ptr, ptr, ptr, i64, i32, i32, i8, ptr, i16, ptr, ptr, i16 }
%struct.dbd_job_comp_msg = type { ptr, i32, ptr, i64, i32, i64, ptr, i32, ptr, i32, i32, ptr, i32, i64, i64, ptr, ptr }

@slurm_conf = dso_local global %struct.slurm_conf_t zeroinitializer, align 8
@.str.77 = private unnamed_addr constant [78 x i8] c"jobacct_storage_p_job_complete: Not inputing this job, it has no submit time.\00", align 1

; Function Attrs: nounwind uwtable
define dso_local i32 @jobacct_storage_p_job_complete(ptr noundef %0, ptr noundef %1) #0 {
  %3 = alloca i32, align 4
  %4 = alloca ptr, align 8
  %5 = alloca ptr, align 8
  %6 = alloca %struct.persist_msg_t, align 8
  %7 = alloca %struct.dbd_job_comp_msg, align 8
  %8 = alloca i32, align 4
  store ptr %0, ptr %4, align 8
  store ptr %1, ptr %5, align 8
  call void @llvm.lifetime.start.p0(i64 24, ptr %6) #9
  call void @llvm.memset.p0.i64(ptr align 8 %6, i8 0, i64 24, i1 false)
  call void @llvm.lifetime.start.p0(i64 128, ptr %7) #9
  %9 = load ptr, ptr %5, align 8
  %10 = getelementptr inbounds nuw %struct.job_record, ptr %9, i32 0, i32 26
  %11 = load i64, ptr %10, align 8
  %12 = icmp ne i64 %11, 0
  br i1 %12, label %27, label %13

13:                                               ; preds = %2
  %14 = load ptr, ptr %5, align 8
  %15 = getelementptr inbounds nuw %struct.job_record, ptr %14, i32 0, i32 30
  %16 = load ptr, ptr %15, align 8
  %17 = icmp ne ptr %16, null
  br i1 %17, label %18, label %25

18:                                               ; preds = %13
  %19 = load ptr, ptr %5, align 8
  %20 = getelementptr inbounds nuw %struct.job_record, ptr %19, i32 0, i32 30
  %21 = load ptr, ptr %20, align 8
  %22 = getelementptr inbounds nuw %struct.job_details_t, ptr %21, i32 0, i32 74
  %23 = load i64, ptr %22, align 8
  %24 = icmp ne i64 %23, 0
  br i1 %24, label %27, label %25

25:                                               ; preds = %18, %13
  %26 = call i32 (ptr, ...) @slurm_error(ptr noundef @.str.77)
  store i32 -1, ptr %3, align 4
  store i32 1, ptr %8, align 4
  br label %177

27:                                               ; preds = %18, %2
  call void @llvm.memset.p0.i64(ptr align 8 %7, i8 0, i64 128, i1 false)
  %28 = load ptr, ptr %5, align 8
  %29 = getelementptr inbounds nuw %struct.job_record, ptr %28, i32 0, i32 10
  %30 = load i32, ptr %29, align 8
  %31 = getelementptr inbounds nuw %struct.dbd_job_comp_msg, ptr %7, i32 0, i32 1
  store i32 %30, ptr %31, align 8
  %32 = load ptr, ptr %5, align 8
  %33 = getelementptr inbounds nuw %struct.job_record, ptr %32, i32 0, i32 2
  %34 = load ptr, ptr %33, align 8
  %35 = getelementptr inbounds nuw %struct.dbd_job_comp_msg, ptr %7, i32 0, i32 0
  store ptr %34, ptr %35, align 8
  %36 = load i32, ptr getelementptr inbounds nuw (%struct.slurm_conf_t, ptr @slurm_conf, i32 0, i32 34), align 4
  %37 = zext i32 %36 to i64
  %38 = and i64 %37, 2
  %39 = icmp ne i64 %38, 0
  br i1 %39, label %40, label %45

40:                                               ; preds = %27
  %41 = load ptr, ptr %5, align 8
  %42 = getelementptr inbounds nuw %struct.job_record, ptr %41, i32 0, i32 20
  %43 = load ptr, ptr %42, align 8
  %44 = getelementptr inbounds nuw %struct.dbd_job_comp_msg, ptr %7, i32 0, i32 2
  store ptr %43, ptr %44, align 8
  br label %45

45:                                               ; preds = %40, %27
  %46 = load i32, ptr getelementptr inbounds nuw (%struct.slurm_conf_t, ptr @slurm_conf, i32 0, i32 34), align 4
  %47 = zext i32 %46 to i64
  %48 = and i64 %47, 256
  %49 = icmp ne i64 %48, 0
  br i1 %49, label %50, label %55

50:                                               ; preds = %45
  %51 = load ptr, ptr %5, align 8
  %52 = getelementptr inbounds nuw %struct.job_record, ptr %51, i32 0, i32 36
  %53 = load ptr, ptr %52, align 8
  %54 = getelementptr inbounds nuw %struct.dbd_job_comp_msg, ptr %7, i32 0, i32 8
  store ptr %53, ptr %54, align 8
  br label %55

55:                                               ; preds = %50, %45
  %56 = load ptr, ptr %5, align 8
  %57 = getelementptr inbounds nuw %struct.job_record, ptr %56, i32 0, i32 26
  %58 = load i64, ptr %57, align 8
  %59 = getelementptr inbounds nuw %struct.dbd_job_comp_msg, ptr %7, i32 0, i32 3
  store i64 %58, ptr %59, align 8
  %60 = load ptr, ptr %5, align 8
  %61 = getelementptr inbounds nuw %struct.job_record, ptr %60, i32 0, i32 29
  %62 = load i32, ptr %61, align 4
  %63 = getelementptr inbounds nuw %struct.dbd_job_comp_msg, ptr %7, i32 0, i32 4
  store i32 %62, ptr %63, align 8
  %64 = load ptr, ptr %5, align 8
  %65 = getelementptr inbounds nuw %struct.job_record, ptr %64, i32 0, i32 35
  %66 = load i32, ptr %65, align 4
  %67 = getelementptr inbounds nuw %struct.dbd_job_comp_msg, ptr %7, i32 0, i32 7
  store i32 %66, ptr %67, align 8
  %68 = load ptr, ptr %5, align 8
  %69 = getelementptr inbounds nuw %struct.job_record, ptr %68, i32 0, i32 38
  %70 = load ptr, ptr %69, align 8
  %71 = getelementptr inbounds nuw %struct.dbd_job_comp_msg, ptr %7, i32 0, i32 6
  store ptr %70, ptr %71, align 8
  %72 = load ptr, ptr %5, align 8
  %73 = getelementptr inbounds nuw %struct.job_record, ptr %72, i32 0, i32 53
  %74 = load i32, ptr %73, align 8
  %75 = getelementptr inbounds nuw %struct.dbd_job_comp_msg, ptr %7, i32 0, i32 9
  store i32 %74, ptr %75, align 8
  %76 = load ptr, ptr %5, align 8
  %77 = getelementptr inbounds nuw %struct.job_record, ptr %76, i32 0, i32 60
  %78 = load i32, ptr %77, align 8
  %79 = zext i32 %78 to i64
  %80 = and i64 %79, 8192
  %81 = icmp ne i64 %80, 0
  br i1 %81, label %82, label %88

82:                                               ; preds = %55
  %83 = load ptr, ptr %5, align 8
  %84 = getelementptr inbounds nuw %struct.job_record, ptr %83, i32 0, i32 107
  %85 = load i64, ptr %84, align 8
  %86 = getelementptr inbounds nuw %struct.dbd_job_comp_msg, ptr %7, i32 0, i32 5
  store i64 %85, ptr %86, align 8
  %87 = getelementptr inbounds nuw %struct.dbd_job_comp_msg, ptr %7, i32 0, i32 10
  store i32 8192, ptr %87, align 4
  br label %118

88:                                               ; preds = %55
  %89 = load ptr, ptr %5, align 8
  %90 = getelementptr inbounds nuw %struct.job_record, ptr %89, i32 0, i32 32
  %91 = load i64, ptr %90, align 8
  %92 = getelementptr inbounds nuw %struct.dbd_job_comp_msg, ptr %7, i32 0, i32 5
  store i64 %91, ptr %92, align 8
  %93 = load ptr, ptr %5, align 8
  %94 = getelementptr inbounds nuw %struct.job_record, ptr %93, i32 0, i32 60
  %95 = load i32, ptr %94, align 8
  %96 = zext i32 %95 to i64
  %97 = and i64 %96, 1024
  %98 = icmp ne i64 %97, 0
  br i1 %98, label %99, label %101

99:                                               ; preds = %88
  %100 = getelementptr inbounds nuw %struct.dbd_job_comp_msg, ptr %7, i32 0, i32 10
  store i32 1024, ptr %100, align 4
  br label %117

101:                                              ; preds = %88
  %102 = load ptr, ptr %5, align 8
  %103 = getelementptr inbounds nuw %struct.job_record, ptr %102, i32 0, i32 60
  %104 = load i32, ptr %103, align 8
  %105 = zext i32 %104 to i64
  %106 = and i64 %105, 524288
  %107 = icmp ne i64 %106, 0
  br i1 %107, label %108, label %110

108:                                              ; preds = %101
  %109 = getelementptr inbounds nuw %struct.dbd_job_comp_msg, ptr %7, i32 0, i32 10
  store i32 524288, ptr %109, align 4
  br label %116

110:                                              ; preds = %101
  %111 = load ptr, ptr %5, align 8
  %112 = getelementptr inbounds nuw %struct.job_record, ptr %111, i32 0, i32 60
  %113 = load i32, ptr %112, align 8
  %114 = and i32 %113, 255
  %115 = getelementptr inbounds nuw %struct.dbd_job_comp_msg, ptr %7, i32 0, i32 10
  store i32 %114, ptr %115, align 4
  br label %116

116:                                              ; preds = %110, %108
  br label %117

117:                                              ; preds = %116, %99
  br label %118

118:                                              ; preds = %117, %82
  %119 = load ptr, ptr %5, align 8
  %120 = getelementptr inbounds nuw %struct.job_record, ptr %119, i32 0, i32 115
  %121 = load i32, ptr %120, align 4
  %122 = getelementptr inbounds nuw %struct.dbd_job_comp_msg, ptr %7, i32 0, i32 12
  store i32 %121, ptr %122, align 8
  %123 = load ptr, ptr %5, align 8
  %124 = getelementptr inbounds nuw %struct.job_record, ptr %123, i32 0, i32 75
  %125 = load ptr, ptr %124, align 8
  %126 = getelementptr inbounds nuw %struct.dbd_job_comp_msg, ptr %7, i32 0, i32 11
  store ptr %125, ptr %126, align 8
  %127 = load ptr, ptr %5, align 8
  %128 = getelementptr inbounds nuw %struct.job_record, ptr %127, i32 0, i32 107
  %129 = load i64, ptr %128, align 8
  %130 = icmp ne i64 %129, 0
  br i1 %130, label %131, label %140

131:                                              ; preds = %118
  %132 = load ptr, ptr %5, align 8
  %133 = getelementptr inbounds nuw %struct.job_record, ptr %132, i32 0, i32 107
  %134 = load i64, ptr %133, align 8
  %135 = getelementptr inbounds nuw %struct.dbd_job_comp_msg, ptr %7, i32 0, i32 13
  store i64 %134, ptr %135, align 8
  %136 = load ptr, ptr %5, align 8
  %137 = getelementptr inbounds nuw %struct.job_record, ptr %136, i32 0, i32 107
  %138 = load i64, ptr %137, align 8
  %139 = getelementptr inbounds nuw %struct.dbd_job_comp_msg, ptr %7, i32 0, i32 14
  store i64 %138, ptr %139, align 8
  br label %157

140:                                              ; preds = %118
  %141 = load ptr, ptr %5, align 8
  %142 = getelementptr inbounds nuw %struct.job_record, ptr %141, i32 0, i32 124
  %143 = load i64, ptr %142, align 8
  %144 = getelementptr inbounds nuw %struct.dbd_job_comp_msg, ptr %7, i32 0, i32 13
  store i64 %143, ptr %144, align 8
  %145 = load ptr, ptr %5, align 8
  %146 = getelementptr inbounds nuw %struct.job_record, ptr %145, i32 0, i32 30
  %147 = load ptr, ptr %146, align 8
  %148 = icmp ne ptr %147, null
  br i1 %148, label %149, label %156

149:                                              ; preds = %140
  %150 = load ptr, ptr %5, align 8
  %151 = getelementptr inbounds nuw %struct.job_record, ptr %150, i32 0, i32 30
  %152 = load ptr, ptr %151, align 8
  %153 = getelementptr inbounds nuw %struct.job_details_t, ptr %152, i32 0, i32 74
  %154 = load i64, ptr %153, align 8
  %155 = getelementptr inbounds nuw %struct.dbd_job_comp_msg, ptr %7, i32 0, i32 14
  store i64 %154, ptr %155, align 8
  br label %156

156:                                              ; preds = %149, %140
  br label %157

157:                                              ; preds = %156, %131
  %158 = load ptr, ptr %5, align 8
  %159 = getelementptr inbounds nuw %struct.job_record, ptr %158, i32 0, i32 16
  %160 = load i64, ptr %159, align 8
  %161 = and i64 %160, 2048
  %162 = icmp ne i64 %161, 0
  br i1 %162, label %168, label %163

163:                                              ; preds = %157
  %164 = load ptr, ptr %5, align 8
  %165 = getelementptr inbounds nuw %struct.job_record, ptr %164, i32 0, i32 148
  %166 = load ptr, ptr %165, align 8
  %167 = getelementptr inbounds nuw %struct.dbd_job_comp_msg, ptr %7, i32 0, i32 16
  store ptr %166, ptr %167, align 8
  br label %168

168:                                              ; preds = %163, %157
  %169 = getelementptr inbounds nuw %struct.persist_msg_t, ptr %6, i32 0, i32 2
  store i16 1424, ptr %169, align 8
  %170 = load ptr, ptr %4, align 8
  %171 = getelementptr inbounds nuw %struct.persist_msg_t, ptr %6, i32 0, i32 0
  store ptr %170, ptr %171, align 8
  %172 = getelementptr inbounds nuw %struct.persist_msg_t, ptr %6, i32 0, i32 1
  store ptr %7, ptr %172, align 8
  %173 = call i32 @slurmdbd_agent_send(i16 noundef zeroext 11008, ptr noundef %6)
  %174 = icmp slt i32 %173, 0
  br i1 %174, label %175, label %176

175:                                              ; preds = %168
  store i32 -1, ptr %3, align 4
  store i32 1, ptr %8, align 4
  br label %177

176:                                              ; preds = %168
  store i32 0, ptr %3, align 4
  store i32 1, ptr %8, align 4
  br label %177

177:                                              ; preds = %176, %175, %25
  call void @llvm.lifetime.end.p0(i64 128, ptr %7) #9
  call void @llvm.lifetime.end.p0(i64 24, ptr %6) #9
  %178 = load i32, ptr %3, align 4
  ret i32 %178
}