; Function Attrs: nounwind uwtable
define dso_local range(i32 -1, 1) i32 @jobacct_storage_p_job_complete(ptr noundef %0, ptr noundef readonly captures(none) %1) local_unnamed_addr #0 {
  %3 = alloca %struct.persist_msg_t, align 8
  %4 = alloca %struct.dbd_job_comp_msg, align 8
  call void @llvm.lifetime.start.p0(i64 24, ptr nonnull %3) #11
  call void @llvm.memset.p0.i64(ptr noundef nonnull align 8 dereferenceable(24) %3, i8 0, i64 24, i1 false)
  call void @llvm.lifetime.start.p0(i64 128, ptr nonnull %4) #11
  %5 = getelementptr inbounds nuw i8, ptr %1, i64 192
  %6 = load i64, ptr %5, align 8
  %.not = icmp eq i64 %6, 0
  br i1 %.not, label %7, label %15

7:                                                ; preds = %2
  %8 = getelementptr inbounds nuw i8, ptr %1, i64 216
  %9 = load ptr, ptr %8, align 8
  %.not32 = icmp eq ptr %9, null
  br i1 %.not32, label %13, label %10

10:                                               ; preds = %7
  %11 = getelementptr inbounds nuw i8, ptr %9, i64 464
  %12 = load i64, ptr %11, align 8
  %.not33 = icmp eq i64 %12, 0
  br i1 %.not33, label %13, label %15

13:                                               ; preds = %10, %7
  %14 = tail call i32 (ptr, ...) @slurm_error(ptr noundef nonnull @.str.77) #11
  br label %97

15:                                               ; preds = %10, %2
  %16 = getelementptr inbounds nuw i8, ptr %4, i64 8
  call void @llvm.memset.p0.i64(ptr noundef nonnull align 8 dereferenceable(128) %16, i8 0, i64 120, i1 false)
  %17 = getelementptr inbounds nuw i8, ptr %1, i64 64
  %18 = load i32, ptr %17, align 8
  %19 = getelementptr inbounds nuw i8, ptr %4, i64 8
  store i32 %18, ptr %19, align 8
  %20 = getelementptr inbounds nuw i8, ptr %1, i64 16
  %21 = load ptr, ptr %20, align 8
  store ptr %21, ptr %4, align 8
  %22 = load i32, ptr getelementptr inbounds nuw (i8, ptr @slurm_conf, i64 268), align 4
  %23 = and i32 %22, 2
  %.not34 = icmp eq i32 %23, 0
  br i1 %.not34, label %28, label %24

24:                                               ; preds = %15
  %25 = getelementptr inbounds nuw i8, ptr %1, i64 144
  %26 = load ptr, ptr %25, align 8
  %27 = getelementptr inbounds nuw i8, ptr %4, i64 16
  store ptr %26, ptr %27, align 8
  br label %28

28:                                               ; preds = %24, %15
  %29 = and i32 %22, 256
  %.not35 = icmp eq i32 %29, 0
  br i1 %.not35, label %34, label %30

30:                                               ; preds = %28
  %31 = getelementptr inbounds nuw i8, ptr %1, i64 256
  %32 = load ptr, ptr %31, align 8
  %33 = getelementptr inbounds nuw i8, ptr %4, i64 64
  store ptr %32, ptr %33, align 8
  br label %34

34:                                               ; preds = %30, %28
  %35 = getelementptr inbounds nuw i8, ptr %4, i64 24
  store i64 %6, ptr %35, align 8
  %36 = getelementptr inbounds nuw i8, ptr %1, i64 212
  %37 = load i32, ptr %36, align 4
  %38 = getelementptr inbounds nuw i8, ptr %4, i64 32
  store i32 %37, ptr %38, align 8
  %39 = getelementptr inbounds nuw i8, ptr %1, i64 252
  %40 = load i32, ptr %39, align 4
  %41 = getelementptr inbounds nuw i8, ptr %4, i64 56
  store i32 %40, ptr %41, align 8
  %42 = getelementptr inbounds nuw i8, ptr %1, i64 272
  %43 = load ptr, ptr %42, align 8
  %44 = getelementptr inbounds nuw i8, ptr %4, i64 48
  store ptr %43, ptr %44, align 8
  %45 = getelementptr inbounds nuw i8, ptr %1, i64 392
  %46 = load i32, ptr %45, align 8
  %47 = getelementptr inbounds nuw i8, ptr %4, i64 72
  store i32 %46, ptr %47, align 8
  %48 = getelementptr inbounds nuw i8, ptr %1, i64 448
  %49 = load i32, ptr %48, align 8
  %50 = and i32 %49, 8192
  %.not36 = icmp eq i32 %50, 0
  %51 = getelementptr inbounds nuw i8, ptr %4, i64 40
  br i1 %.not36, label %55, label %52

52:                                               ; preds = %34
  %53 = getelementptr inbounds nuw i8, ptr %1, i64 792
  %54 = load i64, ptr %53, align 8
  store i64 %54, ptr %51, align 8
  br label %63

55:                                               ; preds = %34
  %56 = getelementptr inbounds nuw i8, ptr %1, i64 232
  %57 = load i64, ptr %56, align 8
  store i64 %57, ptr %51, align 8
  %58 = zext i32 %49 to i64
  %59 = and i64 %58, 1024
  %.not37 = icmp eq i64 %59, 0
  br i1 %.not37, label %60, label %63

60:                                               ; preds = %55
  %61 = and i64 %58, 524288
  %.not38 = icmp eq i64 %61, 0
  %62 = and i32 %49, 255
  %spec.select = select i1 %.not38, i32 %62, i32 524288
  br label %63

63:                                               ; preds = %60, %55, %52
  %.sink = phi i32 [ 8192, %52 ], [ 1024, %55 ], [ %spec.select, %60 ]
  %64 = getelementptr inbounds nuw i8, ptr %4, i64 76
  store i32 %.sink, ptr %64, align 4
  %65 = getelementptr inbounds nuw i8, ptr %1, i64 852
  %66 = load i32, ptr %65, align 4
  %67 = getelementptr inbounds nuw i8, ptr %4, i64 88
  store i32 %66, ptr %67, align 8
  %68 = getelementptr inbounds nuw i8, ptr %1, i64 568
  %69 = load ptr, ptr %68, align 8
  %70 = getelementptr inbounds nuw i8, ptr %4, i64 80
  store ptr %69, ptr %70, align 8
  %71 = getelementptr inbounds nuw i8, ptr %1, i64 792
  %72 = load i64, ptr %71, align 8
  %.not39 = icmp eq i64 %72, 0
  br i1 %.not39, label %75, label %73

73:                                               ; preds = %63
  %74 = getelementptr inbounds nuw i8, ptr %4, i64 96
  store i64 %72, ptr %74, align 8
  br label %.sink.split

75:                                               ; preds = %63
  %76 = getelementptr inbounds nuw i8, ptr %1, i64 912
  %77 = load i64, ptr %76, align 8
  %78 = getelementptr inbounds nuw i8, ptr %4, i64 96
  store i64 %77, ptr %78, align 8
  %79 = getelementptr inbounds nuw i8, ptr %1, i64 216
  %80 = load ptr, ptr %79, align 8
  %.not40 = icmp eq ptr %80, null
  br i1 %.not40, label %85, label %81

81:                                               ; preds = %75
  %82 = getelementptr inbounds nuw i8, ptr %80, i64 464
  %83 = load i64, ptr %82, align 8
  br label %.sink.split

.sink.split:                                      ; preds = %73, %81
  %.sink43 = phi i64 [ %83, %81 ], [ %72, %73 ]
  %84 = getelementptr inbounds nuw i8, ptr %4, i64 104
  store i64 %.sink43, ptr %84, align 8
  br label %85

85:                                               ; preds = %.sink.split, %75
  %86 = getelementptr inbounds nuw i8, ptr %1, i64 112
  %87 = load i64, ptr %86, align 8
  %88 = and i64 %87, 2048
  %.not41 = icmp eq i64 %88, 0
  br i1 %.not41, label %89, label %93

89:                                               ; preds = %85
  %90 = getelementptr inbounds nuw i8, ptr %1, i64 1080
  %91 = load ptr, ptr %90, align 8
  %92 = getelementptr inbounds nuw i8, ptr %4, i64 120
  store ptr %91, ptr %92, align 8
  br label %93

93:                                               ; preds = %89, %85
  %94 = getelementptr inbounds nuw i8, ptr %3, i64 16
  store i16 1424, ptr %94, align 8
  store ptr %0, ptr %3, align 8
  %95 = getelementptr inbounds nuw i8, ptr %3, i64 8
  store ptr %4, ptr %95, align 8
  %96 = call i32 @slurmdbd_agent_send(i16 noundef zeroext 11008, ptr noundef nonnull %3) #11
  %.lobit = ashr i32 %96, 31
  br label %97

97:                                               ; preds = %93, %13
  %.0 = phi i32 [ -1, %13 ], [ %.lobit, %93 ]
  call void @llvm.lifetime.end.p0(i64 128, ptr nonnull %4) #11
  call void @llvm.lifetime.end.p0(i64 24, ptr nonnull %3) #11
  ret i32 %.0
}